target datalayout = "e-m:e-p270:32:32-p271:32:32-p272:64:64-i64:64-i128:128-f80:128-n8:16:32:64-S128"
target triple = "x86_64-pc-linux-gnu"

%struct.mi_stats_s = type { %struct.mi_stat_count_s, %struct.mi_stat_count_s, %struct.mi_stat_count_s, %struct.mi_stat_count_s, %struct.mi_stat_count_s, %struct.mi_stat_count_s, %struct.mi_stat_count_s, %struct.mi_stat_count_s, %struct.mi_stat_count_s, %struct.mi_stat_count_s, %struct.mi_stat_count_s, %struct.mi_stat_count_s, %struct.mi_stat_count_s, %struct.mi_stat_count_s, %struct.mi_stat_count_s, %struct.mi_stat_counter_s, %struct.mi_stat_counter_s, %struct.mi_stat_counter_s, %struct.mi_stat_counter_s, %struct.mi_stat_counter_s, %struct.mi_stat_counter_s, %struct.mi_stat_counter_s, %struct.mi_stat_counter_s, %struct.mi_stat_counter_s, %struct.mi_stat_counter_s, %struct.mi_stat_counter_s, %struct.mi_stat_counter_s, %struct.mi_stat_counter_s, %struct.mi_stat_counter_s }
%struct.mi_stat_count_s = type { i64, i64, i64, i64 }
%struct.mi_stat_counter_s = type { i64, i64 }

@_mi_stats_main = external global %struct.mi_stats_s, align 64
@mi_os_mem_config = internal global { i64, i64, i64, i64, i64, i8, i8, i8, [5 x i8] } { i64 4096, i64 0, i64 4096, i64 34359738368, i64 48, i8 1, i8 0, i8 1, [5 x i8] zeroinitializer }, align 8
@.str.10 = private unnamed_addr constant [78 x i8] c"cannot decommit OS memory (error: %d (0x%x), address: %p, size: 0x%zx bytes)\0A\00", align 1

; Function Attrs: inlinehint nounwind uwtable
define internal i64 @_mi_align_down(i64 noundef %0, i64 noundef %1) #4 {
  %3 = alloca i64, align 8
  %4 = alloca i64, align 8
  %5 = alloca i64, align 8
  %6 = alloca i64, align 8
  %7 = alloca i32, align 4
  store i64 %0, ptr %4, align 8, !tbaa !14
  store i64 %1, ptr %5, align 8, !tbaa !14
  call void @llvm.lifetime.start.p0(i64 8, ptr %6) #9
  %8 = load i64, ptr %5, align 8, !tbaa !14
  %9 = sub i64 %8, 1
  store i64 %9, ptr %6, align 8, !tbaa !14
  %10 = load i64, ptr %5, align 8, !tbaa !14
  %11 = load i64, ptr %6, align 8, !tbaa !14
  %12 = and i64 %10, %11
  %13 = icmp eq i64 %12, 0
  br i1 %13, label %14, label %19

14:                                               ; preds = %2
  %15 = load i64, ptr %4, align 8, !tbaa !14
  %16 = load i64, ptr %6, align 8, !tbaa !14
  %17 = xor i64 %16, -1
  %18 = and i64 %15, %17
  store i64 %18, ptr %3, align 8
  store i32 1, ptr %7, align 4
  br label %25

19:                                               ; preds = %2
  %20 = load i64, ptr %4, align 8, !tbaa !14
  %21 = load i64, ptr %5, align 8, !tbaa !14
  %22 = udiv i64 %20, %21
  %23 = load i64, ptr %5, align 8, !tbaa !14
  %24 = mul i64 %22, %23
  store i64 %24, ptr %3, align 8
  store i32 1, ptr %7, align 4
  br label %25

25:                                               ; preds = %19, %14
  call void @llvm.lifetime.end.p0(i64 8, ptr %6) #9
  %26 = load i64, ptr %3, align 8
  ret i64 %26
}

; Function Attrs: inlinehint nounwind uwtable
define internal i64 @_mi_align_up(i64 noundef %0, i64 noundef %1) #4 {
  %3 = alloca i64, align 8
  %4 = alloca i64, align 8
  %5 = alloca i64, align 8
  %6 = alloca i64, align 8
  %7 = alloca i32, align 4
  store i64 %0, ptr %4, align 8, !tbaa !14
  store i64 %1, ptr %5, align 8, !tbaa !14
  call void @llvm.lifetime.start.p0(i64 8, ptr %6) #9
  %8 = load i64, ptr %5, align 8, !tbaa !14
  %9 = sub i64 %8, 1
  store i64 %9, ptr %6, align 8, !tbaa !14
  %10 = load i64, ptr %5, align 8, !tbaa !14
  %11 = load i64, ptr %6, align 8, !tbaa !14
  %12 = and i64 %10, %11
  %13 = icmp eq i64 %12, 0
  br i1 %13, label %14, label %21

14:                                               ; preds = %2
  %15 = load i64, ptr %4, align 8, !tbaa !14
  %16 = load i64, ptr %6, align 8, !tbaa !14
  %17 = add i64 %15, %16
  %18 = load i64, ptr %6, align 8, !tbaa !14
  %19 = xor i64 %18, -1
  %20 = and i64 %17, %19
  store i64 %20, ptr %3, align 8
  store i32 1, ptr %7, align 4
  br label %29

21:                                               ; preds = %2
  %22 = load i64, ptr %4, align 8, !tbaa !14
  %23 = load i64, ptr %6, align 8, !tbaa !14
  %24 = add i64 %22, %23
  %25 = load i64, ptr %5, align 8, !tbaa !14
  %26 = udiv i64 %24, %25
  %27 = load i64, ptr %5, align 8, !tbaa !14
  %28 = mul i64 %26, %27
  store i64 %28, ptr %3, align 8
  store i32 1, ptr %7, align 4
  br label %29

29:                                               ; preds = %21, %14
  call void @llvm.lifetime.end.p0(i64 8, ptr %6) #9
  %30 = load i64, ptr %3, align 8
  ret i64 %30
}

; Function Attrs: inlinehint nounwind uwtable
define internal ptr @mi_align_down_ptr(ptr noundef %0, i64 noundef %1) #4 {
  %3 = alloca ptr, align 8
  %4 = alloca i64, align 8
  store ptr %0, ptr %3, align 8, !tbaa !20
  store i64 %1, ptr %4, align 8, !tbaa !14
  %5 = load ptr, ptr %3, align 8, !tbaa !20
  %6 = ptrtoint ptr %5 to i64
  %7 = load i64, ptr %4, align 8, !tbaa !14
  %8 = call i64 @_mi_align_down(i64 noundef %6, i64 noundef %7) #8
  %9 = inttoptr i64 %8 to ptr
  ret ptr %9
}

; Function Attrs: inlinehint nounwind uwtable
define internal ptr @mi_align_up_ptr(ptr noundef %0, i64 noundef %1) #4 {
  %3 = alloca ptr, align 8
  %4 = alloca i64, align 8
  store ptr %0, ptr %3, align 8, !tbaa !20
  store i64 %1, ptr %4, align 8, !tbaa !14
  %5 = load ptr, ptr %3, align 8, !tbaa !20
  %6 = ptrtoint ptr %5 to i64
  %7 = load i64, ptr %4, align 8, !tbaa !14
  %8 = call i64 @_mi_align_up(i64 noundef %6, i64 noundef %7) #8
  %9 = inttoptr i64 %8 to ptr
  ret ptr %9
}

; Function Attrs: nounwind uwtable
define hidden i64 @_mi_os_page_size() #0 {
  %1 = load i64, ptr @mi_os_mem_config, align 8, !tbaa !12
  ret i64 %1
}

; Function Attrs: nounwind uwtable
define internal ptr @mi_os_page_align_areax(i1 noundef zeroext %0, ptr noundef %1, i64 noundef %2, ptr noundef %3) #0 {
  %5 = alloca ptr, align 8
  %6 = alloca i8, align 1
  %7 = alloca ptr, align 8
  %8 = alloca i64, align 8
  %9 = alloca ptr, align 8
  %10 = alloca ptr, align 8
  %11 = alloca ptr, align 8
  %12 = alloca i64, align 8
  %13 = alloca i32, align 4
  %14 = zext i1 %0 to i8
  store i8 %14, ptr %6, align 1, !tbaa !16
  store ptr %1, ptr %7, align 8, !tbaa !20
  store i64 %2, ptr %8, align 8, !tbaa !14
  store ptr %3, ptr %9, align 8, !tbaa !41
  %15 = load ptr, ptr %9, align 8, !tbaa !41
  %16 = icmp ne ptr %15, null
  br i1 %16, label %17, label %19

17:                                               ; preds = %4
  %18 = load ptr, ptr %9, align 8, !tbaa !41
  store i64 0, ptr %18, align 8, !tbaa !14
  br label %19

19:                                               ; preds = %17, %4
  %20 = load i64, ptr %8, align 8, !tbaa !14
  %21 = icmp eq i64 %20, 0
  br i1 %21, label %25, label %22

22:                                               ; preds = %19
  %23 = load ptr, ptr %7, align 8, !tbaa !20
  %24 = icmp eq ptr %23, null
  br i1 %24, label %25, label %26

25:                                               ; preds = %22, %19
  store ptr null, ptr %5, align 8
  br label %72

26:                                               ; preds = %22
  call void @llvm.lifetime.start.p0(i64 8, ptr %10) #9
  %27 = load i8, ptr %6, align 1, !tbaa !16, !range !9, !noundef !10
  %28 = trunc i8 %27 to i1
  br i1 %28, label %29, label %33

29:                                               ; preds = %26
  %30 = load ptr, ptr %7, align 8, !tbaa !20
  %31 = call i64 @_mi_os_page_size() #8
  %32 = call ptr @mi_align_up_ptr(ptr noundef %30, i64 noundef %31) #8
  br label %37

33:                                               ; preds = %26
  %34 = load ptr, ptr %7, align 8, !tbaa !20
  %35 = call i64 @_mi_os_page_size() #8
  %36 = call ptr @mi_align_down_ptr(ptr noundef %34, i64 noundef %35) #8
  br label %37

37:                                               ; preds = %33, %29
  %38 = phi ptr [ %32, %29 ], [ %36, %33 ]
  store ptr %38, ptr %10, align 8, !tbaa !20
  call void @llvm.lifetime.start.p0(i64 8, ptr %11) #9
  %39 = load i8, ptr %6, align 1, !tbaa !16, !range !9, !noundef !10
  %40 = trunc i8 %39 to i1
  br i1 %40, label %41, label %47

41:                                               ; preds = %37
  %42 = load ptr, ptr %7, align 8, !tbaa !20
  %43 = load i64, ptr %8, align 8, !tbaa !14
  %44 = getelementptr inbounds nuw i8, ptr %42, i64 %43
  %45 = call i64 @_mi_os_page_size() #8
  %46 = call ptr @mi_align_down_ptr(ptr noundef %44, i64 noundef %45) #8
  br label %53

47:                                               ; preds = %37
  %48 = load ptr, ptr %7, align 8, !tbaa !20
  %49 = load i64, ptr %8, align 8, !tbaa !14
  %50 = getelementptr inbounds nuw i8, ptr %48, i64 %49
  %51 = call i64 @_mi_os_page_size() #8
  %52 = call ptr @mi_align_up_ptr(ptr noundef %50, i64 noundef %51) #8
  br label %53

53:                                               ; preds = %47, %41
  %54 = phi ptr [ %46, %41 ], [ %52, %47 ]
  store ptr %54, ptr %11, align 8, !tbaa !20
  call void @llvm.lifetime.start.p0(i64 8, ptr %12) #9
  %55 = load ptr, ptr %11, align 8, !tbaa !20
  %56 = load ptr, ptr %10, align 8, !tbaa !20
  %57 = ptrtoint ptr %55 to i64
  %58 = ptrtoint ptr %56 to i64
  %59 = sub i64 %57, %58
  store i64 %59, ptr %12, align 8, !tbaa !14
  %60 = load i64, ptr %12, align 8, !tbaa !14
  %61 = icmp sle i64 %60, 0
  br i1 %61, label %62, label %63

62:                                               ; preds = %53
  store ptr null, ptr %5, align 8
  store i32 1, ptr %13, align 4
  br label %71

63:                                               ; preds = %53
  %64 = load ptr, ptr %9, align 8, !tbaa !41
  %65 = icmp ne ptr %64, null
  br i1 %65, label %66, label %69

66:                                               ; preds = %63
  %67 = load i64, ptr %12, align 8, !tbaa !14
  %68 = load ptr, ptr %9, align 8, !tbaa !41
  store i64 %67, ptr %68, align 8, !tbaa !14
  br label %69

69:                                               ; preds = %66, %63
  %70 = load ptr, ptr %10, align 8, !tbaa !20
  store ptr %70, ptr %5, align 8
  store i32 1, ptr %13, align 4
  br label %71

71:                                               ; preds = %69, %62
  call void @llvm.lifetime.end.p0(i64 8, ptr %12) #9
  call void @llvm.lifetime.end.p0(i64 8, ptr %11) #9
  call void @llvm.lifetime.end.p0(i64 8, ptr %10) #9
  br label %72

72:                                               ; preds = %71, %25
  %73 = load ptr, ptr %5, align 8
  ret ptr %73
}

; Function Attrs: nounwind uwtable
define internal ptr @mi_os_page_align_area_conservative(ptr noundef %0, i64 noundef %1, ptr noundef %2) #0 {
  %4 = alloca ptr, align 8
  %5 = alloca i64, align 8
  %6 = alloca ptr, align 8
  store ptr %0, ptr %4, align 8, !tbaa !20
  store i64 %1, ptr %5, align 8, !tbaa !14
  store ptr %2, ptr %6, align 8, !tbaa !41
  %7 = load ptr, ptr %4, align 8, !tbaa !20
  %8 = load i64, ptr %5, align 8, !tbaa !14
  %9 = load ptr, ptr %6, align 8, !tbaa !41
  %10 = call ptr @mi_os_page_align_areax(i1 noundef zeroext true, ptr noundef %7, i64 noundef %8, ptr noundef %9) #8
  ret ptr %10
}

; Function Attrs: nounwind uwtable
define internal zeroext i1 @mi_os_decommit_ex(ptr noundef %0, i64 noundef %1, ptr noundef %2, i64 noundef %3) #0 {
  %5 = alloca i1, align 1
  %6 = alloca ptr, align 8
  %7 = alloca i64, align 8
  %8 = alloca ptr, align 8
  %9 = alloca i64, align 8
  %10 = alloca i64, align 8
  %11 = alloca ptr, align 8
  %12 = alloca i32, align 4
  %13 = alloca i32, align 4
  store ptr %0, ptr %6, align 8, !tbaa !20
  store i64 %1, ptr %7, align 8, !tbaa !14
  store ptr %2, ptr %8, align 8, !tbaa !33
  store i64 %3, ptr %9, align 8, !tbaa !14
  %14 = load i64, ptr %9, align 8, !tbaa !14
  call void @_mi_stat_decrease(ptr noundef getelementptr inbounds nuw (%struct.mi_stats_s, ptr @_mi_stats_main, i32 0, i32 3), i64 noundef %14) #8
  call void @llvm.lifetime.start.p0(i64 8, ptr %10) #9
  call void @llvm.lifetime.start.p0(i64 8, ptr %11) #9
  %15 = load ptr, ptr %6, align 8, !tbaa !20
  %16 = load i64, ptr %7, align 8, !tbaa !14
  %17 = call ptr @mi_os_page_align_area_conservative(ptr noundef %15, i64 noundef %16, ptr noundef %10) #8
  store ptr %17, ptr %11, align 8, !tbaa !20
  %18 = load i64, ptr %10, align 8, !tbaa !14
  %19 = icmp eq i64 %18, 0
  br i1 %19, label %20, label %21

20:                                               ; preds = %4
  store i1 true, ptr %5, align 1
  store i32 1, ptr %12, align 4
  br label %37

21:                                               ; preds = %4
  %22 = load ptr, ptr %8, align 8, !tbaa !33
  store i8 1, ptr %22, align 1, !tbaa !16
  call void @llvm.lifetime.start.p0(i64 4, ptr %13) #9
  %23 = load ptr, ptr %11, align 8, !tbaa !20
  %24 = load i64, ptr %10, align 8, !tbaa !14
  %25 = load ptr, ptr %8, align 8, !tbaa !33
  %26 = call i32 @_mi_prim_decommit(ptr noundef %23, i64 noundef %24, ptr noundef %25) #8
  store i32 %26, ptr %13, align 4, !tbaa !25
  %27 = load i32, ptr %13, align 4, !tbaa !25
  %28 = icmp ne i32 %27, 0
  br i1 %28, label %29, label %34

29:                                               ; preds = %21
  %30 = load i32, ptr %13, align 4, !tbaa !25
  %31 = load i32, ptr %13, align 4, !tbaa !25
  %32 = load ptr, ptr %11, align 8, !tbaa !20
  %33 = load i64, ptr %10, align 8, !tbaa !14
  call void (ptr, ...) @_mi_warning_message(ptr noundef @.str.10, i32 noundef %30, i32 noundef %31, ptr noundef %32, i64 noundef %33) #8
  br label %34

34:                                               ; preds = %29, %21
  %35 = load i32, ptr %13, align 4, !tbaa !25
  %36 = icmp eq i32 %35, 0
  store i1 %36, ptr %5, align 1
  store i32 1, ptr %12, align 4
  call void @llvm.lifetime.end.p0(i64 4, ptr %13) #9
  br label %37

37:                                               ; preds = %34, %20
  call void @llvm.lifetime.end.p0(i64 8, ptr %11) #9
  call void @llvm.lifetime.end.p0(i64 8, ptr %10) #9
  %38 = load i1, ptr %5, align 1
  ret i1 %38
}

; Function Attrs: nounwind uwtable
define hidden zeroext i1 @_mi_os_decommit(ptr noundef %0, i64 noundef %1) #0 {
  %3 = alloca ptr, align 8
  %4 = alloca i64, align 8
  %5 = alloca i8, align 1
  store ptr %0, ptr %3, align 8, !tbaa !20
  store i64 %1, ptr %4, align 8, !tbaa !14
  call void @llvm.lifetime.start.p0(i64 1, ptr %5) #9
  %6 = load ptr, ptr %3, align 8, !tbaa !20
  %7 = load i64, ptr %4, align 8, !tbaa !14
  %8 = load i64, ptr %4, align 8, !tbaa !14
  %9 = call zeroext i1 @mi_os_decommit_ex(ptr noundef %6, i64 noundef %7, ptr noundef %5, i64 noundef %8) #8
  call void @llvm.lifetime.end.p0(i64 1, ptr %5) #9
  ret i1 %9
}