; Function Attrs: nounwind uwtable
define hidden noundef zeroext i1 @_mi_os_decommit(ptr noundef %0, i64 noundef %1) local_unnamed_addr #1 {
  %3 = alloca i8, align 1
  call void @llvm.lifetime.start.p0(i64 1, ptr nonnull %3) #9
  tail call void @_mi_stat_decrease(ptr noundef nonnull getelementptr inbounds nuw (i8, ptr @_mi_stats_main, i64 96), i64 noundef %1) #7
  %4 = icmp eq i64 %1, 0
  %5 = icmp eq ptr %0, null
  %or.cond.i.i.i = or i1 %5, %4
  br i1 %or.cond.i.i.i, label %mi_os_decommit_ex.exit, label %6

6:                                                ; preds = %2
  %7 = load i64, ptr @mi_os_mem_config, align 8, !tbaa !12
  %8 = ptrtoint ptr %0 to i64
  %9 = tail call range(i64 0, 65) i64 @llvm.ctpop.i64(i64 %7)
  %10 = icmp samesign ult i64 %9, 2
  %11 = add i64 %8, -1
  %12 = add i64 %11, %7
  %13 = getelementptr inbounds nuw i8, ptr %0, i64 %1
  %14 = ptrtoint ptr %13 to i64
  br i1 %10, label %15, label %19

15:                                               ; preds = %6
  %16 = sub i64 0, %7
  %17 = and i64 %12, %16
  %18 = and i64 %16, %14
  br label %mi_align_down_ptr.exit27.i.i.i

19:                                               ; preds = %6
  %20 = urem i64 %12, %7
  %21 = sub nuw i64 %12, %20
  %22 = urem i64 %14, %7
  %23 = sub nuw i64 %14, %22
  br label %mi_align_down_ptr.exit27.i.i.i

mi_align_down_ptr.exit27.i.i.i:                   ; preds = %19, %15
  %.in.i.i.i = phi i64 [ %17, %15 ], [ %21, %19 ]
  %.in30.i.i.i = phi i64 [ %18, %15 ], [ %23, %19 ]
  %24 = sub i64 %.in30.i.i.i, %.in.i.i.i
  %25 = icmp slt i64 %24, 1
  br i1 %25, label %mi_os_decommit_ex.exit, label %26

26:                                               ; preds = %mi_align_down_ptr.exit27.i.i.i
  %27 = inttoptr i64 %.in.i.i.i to ptr
  store i8 1, ptr %3, align 1, !tbaa !24
  %28 = call i32 @_mi_prim_decommit(ptr noundef %27, i64 noundef %24, ptr noundef nonnull %3) #7
  %.not.i = icmp eq i32 %28, 0
  br i1 %.not.i, label %mi_os_decommit_ex.exit, label %29

29:                                               ; preds = %26
  call void (ptr, ...) @_mi_warning_message(ptr noundef nonnull @.str.10, i32 noundef %28, i32 noundef %28, ptr noundef %27, i64 noundef %24) #7
  br label %mi_os_decommit_ex.exit

mi_os_decommit_ex.exit:                           ; preds = %2, %mi_align_down_ptr.exit27.i.i.i, %26, %29
  %.0.i = phi i1 [ false, %29 ], [ true, %26 ], [ true, %2 ], [ true, %mi_align_down_ptr.exit27.i.i.i ]
  call void @llvm.lifetime.end.p0(i64 1, ptr nonnull %3) #9
  ret i1 %.0.i
}